; ModuleID = '57/1573.c'
source_filename = "57/1573.c"
target datalayout = "e-m:e-p270:32:32-p271:32:32-p272:64:64-i64:64-f80:128-n8:16:32:64-S128"
target triple = "x86_64-pc-linux-gnu"

@.str = private unnamed_addr constant [3 x i8] c"%d\00", align 1
@.str.1 = private unnamed_addr constant [3 x i8] c"%s\00", align 1
@.str.2 = private unnamed_addr constant [4 x i8] c"%s\0A\00", align 1

; Function Attrs: noinline nounwind uwtable
define dso_local i32 @main() #0 {
  %1 = alloca i32, align 4
  %2 = alloca i32, align 4
  %3 = alloca i32, align 4
  %4 = alloca [200 x i8], align 16
  %5 = alloca i32, align 4
  %6 = alloca i32, align 4
  store i32 0, i32* %1, align 4
  %7 = call i32 (i8*, ...) @__isoc99_scanf(i8* getelementptr inbounds ([3 x i8], [3 x i8]* @.str, i64 0, i64 0), i32* %2)
  store i32 0, i32* %5, align 4
  br label %8

8:                                                ; preds = %119, %0
  %9 = load i32, i32* %5, align 4
  %10 = load i32, i32* %2, align 4
  %11 = icmp slt i32 %9, %10
  br i1 %11, label %12, label %122

12:                                               ; preds = %8
  %13 = getelementptr inbounds [200 x i8], [200 x i8]* %4, i64 0, i64 0
  %14 = call i32 (i8*, ...) @__isoc99_scanf(i8* getelementptr inbounds ([3 x i8], [3 x i8]* @.str.1, i64 0, i64 0), i8* %13)
  %15 = getelementptr inbounds [200 x i8], [200 x i8]* %4, i64 0, i64 0
  %16 = call i64 @strlen(i8* %15) #3
  %17 = trunc i64 %16 to i32
  store i32 %17, i32* %3, align 4
  %18 = load i32, i32* %3, align 4
  %19 = sub nsw i32 %18, 2
  %20 = sext i32 %19 to i64
  %21 = getelementptr inbounds [200 x i8], [200 x i8]* %4, i64 0, i64 %20
  %22 = load i8, i8* %21, align 1
  %23 = sext i8 %22 to i32
  %24 = icmp eq i32 %23, 101
  br i1 %24, label %25, label %42

25:                                               ; preds = %12
  %26 = load i32, i32* %3, align 4
  %27 = sub nsw i32 %26, 1
  %28 = sext i32 %27 to i64
  %29 = getelementptr inbounds [200 x i8], [200 x i8]* %4, i64 0, i64 %28
  %30 = load i8, i8* %29, align 1
  %31 = sext i8 %30 to i32
  %32 = icmp eq i32 %31, 114
  br i1 %32, label %33, label %42

33:                                               ; preds = %25
  %34 = load i32, i32* %3, align 4
  %35 = sub nsw i32 %34, 2
  %36 = sext i32 %35 to i64
  %37 = getelementptr inbounds [200 x i8], [200 x i8]* %4, i64 0, i64 %36
  store i8 0, i8* %37, align 1
  %38 = load i32, i32* %3, align 4
  %39 = sub nsw i32 %38, 1
  %40 = sext i32 %39 to i64
  %41 = getelementptr inbounds [200 x i8], [200 x i8]* %4, i64 0, i64 %40
  store i8 0, i8* %41, align 1
  br label %42

42:                                               ; preds = %33, %25, %12
  %43 = load i32, i32* %3, align 4
  %44 = sub nsw i32 %43, 2
  %45 = sext i32 %44 to i64
  %46 = getelementptr inbounds [200 x i8], [200 x i8]* %4, i64 0, i64 %45
  %47 = load i8, i8* %46, align 1
  %48 = sext i8 %47 to i32
  %49 = icmp eq i32 %48, 108
  br i1 %49, label %50, label %67

50:                                               ; preds = %42
  %51 = load i32, i32* %3, align 4
  %52 = sub nsw i32 %51, 1
  %53 = sext i32 %52 to i64
  %54 = getelementptr inbounds [200 x i8], [200 x i8]* %4, i64 0, i64 %53
  %55 = load i8, i8* %54, align 1
  %56 = sext i8 %55 to i32
  %57 = icmp eq i32 %56, 121
  br i1 %57, label %58, label %67

58:                                               ; preds = %50
  %59 = load i32, i32* %3, align 4
  %60 = sub nsw i32 %59, 2
  %61 = sext i32 %60 to i64
  %62 = getelementptr inbounds [200 x i8], [200 x i8]* %4, i64 0, i64 %61
  store i8 0, i8* %62, align 1
  %63 = load i32, i32* %3, align 4
  %64 = sub nsw i32 %63, 1
  %65 = sext i32 %64 to i64
  %66 = getelementptr inbounds [200 x i8], [200 x i8]* %4, i64 0, i64 %65
  store i8 0, i8* %66, align 1
  br label %67

67:                                               ; preds = %58, %50, %42
  %68 = load i32, i32* %3, align 4
  %69 = sub nsw i32 %68, 3
  %70 = sext i32 %69 to i64
  %71 = getelementptr inbounds [200 x i8], [200 x i8]* %4, i64 0, i64 %70
  %72 = load i8, i8* %71, align 1
  %73 = sext i8 %72 to i32
  %74 = icmp eq i32 %73, 105
  br i1 %74, label %75, label %104

75:                                               ; preds = %67
  %76 = load i32, i32* %3, align 4
  %77 = sub nsw i32 %76, 2
  %78 = sext i32 %77 to i64
  %79 = getelementptr inbounds [200 x i8], [200 x i8]* %4, i64 0, i64 %78
  %80 = load i8, i8* %79, align 1
  %81 = sext i8 %80 to i32
  %82 = icmp eq i32 %81, 110
  br i1 %82, label %83, label %104

83:                                               ; preds = %75
  %84 = load i32, i32* %3, align 4
  %85 = sub nsw i32 %84, 1
  %86 = sext i32 %85 to i64
  %87 = getelementptr inbounds [200 x i8], [200 x i8]* %4, i64 0, i64 %86
  %88 = load i8, i8* %87, align 1
  %89 = sext i8 %88 to i32
  %90 = icmp eq i32 %89, 103
  br i1 %90, label %91, label %104

91:                                               ; preds = %83
  %92 = load i32, i32* %3, align 4
  %93 = sub nsw i32 %92, 3
  %94 = sext i32 %93 to i64
  %95 = getelementptr inbounds [200 x i8], [200 x i8]* %4, i64 0, i64 %94
  store i8 0, i8* %95, align 1
  %96 = load i32, i32* %3, align 4
  %97 = sub nsw i32 %96, 2
  %98 = sext i32 %97 to i64
  %99 = getelementptr inbounds [200 x i8], [200 x i8]* %4, i64 0, i64 %98
  store i8 0, i8* %99, align 1
  %100 = load i32, i32* %3, align 4
  %101 = sub nsw i32 %100, 1
  %102 = sext i32 %101 to i64
  %103 = getelementptr inbounds [200 x i8], [200 x i8]* %4, i64 0, i64 %102
  store i8 0, i8* %103, align 1
  br label %104

104:                                              ; preds = %91, %83, %75, %67
  %105 = getelementptr inbounds [200 x i8], [200 x i8]* %4, i64 0, i64 0
  %106 = call i32 (i8*, ...) @printf(i8* getelementptr inbounds ([4 x i8], [4 x i8]* @.str.2, i64 0, i64 0), i8* %105)
  store i32 0, i32* %6, align 4
  br label %107

107:                                              ; preds = %115, %104
  %108 = load i32, i32* %6, align 4
  %109 = load i32, i32* %3, align 4
  %110 = icmp slt i32 %108, %109
  br i1 %110, label %111, label %118

111:                                              ; preds = %107
  %112 = load i32, i32* %6, align 4
  %113 = sext i32 %112 to i64
  %114 = getelementptr inbounds [200 x i8], [200 x i8]* %4, i64 0, i64 %113
  store i8 32, i8* %114, align 1
  br label %115

115:                                              ; preds = %111
  %116 = load i32, i32* %6, align 4
  %117 = add nsw i32 %116, 1
  store i32 %117, i32* %6, align 4
  br label %107

118:                                              ; preds = %107
  br label %119

119:                                              ; preds = %118
  %120 = load i32, i32* %5, align 4
  %121 = add nsw i32 %120, 1
  store i32 %121, i32* %5, align 4
  br label %8

122:                                              ; preds = %8
  ret i32 0
}

declare dso_local i32 @__isoc99_scanf(i8*, ...) #1

; Function Attrs: nounwind readonly
declare dso_local i64 @strlen(i8*) #2

declare dso_local i32 @printf(i8*, ...) #1


!llvm.module.flags = !{!0}
!llvm.ident = !{!1}

!0 = !{i32 1, !"wchar_size", i32 4}
!1 = !{!"clang version 10.0.0-4ubuntu1 "}
